target datalayout = "e-m:e-p270:32:32-p271:32:32-p272:64:64-i64:64-i128:128-f80:128-n8:16:32:64-S128"
target triple = "x86_64-pc-linux-gnu"

%struct.lua_Debug = type { i32, ptr, ptr, ptr, ptr, i32, i32, i32, i32, [60 x i8], i32 }

@.str = private unnamed_addr constant [22 x i8] c"bad argument #%d (%s)\00", align 1
@.str.1 = private unnamed_addr constant [2 x i8] c"n\00", align 1
@.str.2 = private unnamed_addr constant [7 x i8] c"method\00", align 1
@.str.3 = private unnamed_addr constant [30 x i8] c"calling '%s' on bad self (%s)\00", align 1
@.str.4 = private unnamed_addr constant [2 x i8] c"?\00", align 1
@.str.5 = private unnamed_addr constant [30 x i8] c"bad argument #%d to '%s' (%s)\00", align 1

; Function Attrs: nounwind uwtable
define dso_local i32 @luaL_argerror(ptr noundef %0, i32 noundef %1, ptr noundef %2) #0 {
  %4 = alloca i32, align 4
  %5 = alloca ptr, align 8
  %6 = alloca i32, align 4
  %7 = alloca ptr, align 8
  %8 = alloca %struct.lua_Debug, align 8
  %9 = alloca i32, align 4
  store ptr %0, ptr %5, align 8, !tbaa !4
  store i32 %1, ptr %6, align 4, !tbaa !9
  store ptr %2, ptr %7, align 8, !tbaa !11
  call void @llvm.lifetime.start.p0(i64 120, ptr %8) #9
  %10 = load ptr, ptr %5, align 8, !tbaa !4
  %11 = call i32 @lua_getstack(ptr noundef %10, i32 noundef 0, ptr noundef %8)
  %12 = icmp ne i32 %11, 0
  br i1 %12, label %18, label %13

13:                                               ; preds = %3
  %14 = load ptr, ptr %5, align 8, !tbaa !4
  %15 = load i32, ptr %6, align 4, !tbaa !9
  %16 = load ptr, ptr %7, align 8, !tbaa !11
  %17 = call i32 (ptr, ptr, ...) @luaL_error(ptr noundef %14, ptr noundef @.str, i32 noundef %15, ptr noundef %16)
  store i32 %17, ptr %4, align 4
  store i32 1, ptr %9, align 4
  br label %50

18:                                               ; preds = %3
  %19 = load ptr, ptr %5, align 8, !tbaa !4
  %20 = call i32 @lua_getinfo(ptr noundef %19, ptr noundef @.str.1, ptr noundef %8)
  %21 = getelementptr inbounds nuw %struct.lua_Debug, ptr %8, i32 0, i32 2
  %22 = load ptr, ptr %21, align 8, !tbaa !13
  %23 = call i32 @strcmp(ptr noundef %22, ptr noundef @.str.2) #10
  %24 = icmp eq i32 %23, 0
  br i1 %24, label %25, label %37

25:                                               ; preds = %18
  %26 = load i32, ptr %6, align 4, !tbaa !9
  %27 = add nsw i32 %26, -1
  store i32 %27, ptr %6, align 4, !tbaa !9
  %28 = load i32, ptr %6, align 4, !tbaa !9
  %29 = icmp eq i32 %28, 0
  br i1 %29, label %30, label %36

30:                                               ; preds = %25
  %31 = load ptr, ptr %5, align 8, !tbaa !4
  %32 = getelementptr inbounds nuw %struct.lua_Debug, ptr %8, i32 0, i32 1
  %33 = load ptr, ptr %32, align 8, !tbaa !15
  %34 = load ptr, ptr %7, align 8, !tbaa !11
  %35 = call i32 (ptr, ptr, ...) @luaL_error(ptr noundef %31, ptr noundef @.str.3, ptr noundef %33, ptr noundef %34)
  store i32 %35, ptr %4, align 4
  store i32 1, ptr %9, align 4
  br label %50

36:                                               ; preds = %25
  br label %37

37:                                               ; preds = %36, %18
  %38 = getelementptr inbounds nuw %struct.lua_Debug, ptr %8, i32 0, i32 1
  %39 = load ptr, ptr %38, align 8, !tbaa !15
  %40 = icmp eq ptr %39, null
  br i1 %40, label %41, label %43

41:                                               ; preds = %37
  %42 = getelementptr inbounds nuw %struct.lua_Debug, ptr %8, i32 0, i32 1
  store ptr @.str.4, ptr %42, align 8, !tbaa !15
  br label %43

43:                                               ; preds = %41, %37
  %44 = load ptr, ptr %5, align 8, !tbaa !4
  %45 = load i32, ptr %6, align 4, !tbaa !9
  %46 = getelementptr inbounds nuw %struct.lua_Debug, ptr %8, i32 0, i32 1
  %47 = load ptr, ptr %46, align 8, !tbaa !15
  %48 = load ptr, ptr %7, align 8, !tbaa !11
  %49 = call i32 (ptr, ptr, ...) @luaL_error(ptr noundef %44, ptr noundef @.str.5, i32 noundef %45, ptr noundef %47, ptr noundef %48)
  store i32 %49, ptr %4, align 4
  store i32 1, ptr %9, align 4
  br label %50

50:                                               ; preds = %43, %30, %13
  call void @llvm.lifetime.end.p0(i64 120, ptr %8) #9
  %51 = load i32, ptr %4, align 4
  ret i32 %51
}