; Function Attrs: nounwind uwtable
define dso_local i32 @luaL_argerror(ptr noundef %0, i32 noundef %1, ptr noundef %2) local_unnamed_addr #0 {
  %4 = alloca %struct.lua_Debug, align 8
  call void @llvm.lifetime.start.p0(i64 120, ptr nonnull %4) #17
  %5 = call i32 @lua_getstack(ptr noundef %0, i32 noundef 0, ptr noundef nonnull %4) #17
  %.not = icmp eq i32 %5, 0
  br i1 %.not, label %6, label %8

6:                                                ; preds = %3
  %7 = call i32 (ptr, ptr, ...) @luaL_error(ptr noundef %0, ptr noundef nonnull @.str, i32 noundef %1, ptr noundef %2)
  br label %29

8:                                                ; preds = %3
  %9 = call i32 @lua_getinfo(ptr noundef %0, ptr noundef nonnull @.str.1, ptr noundef nonnull %4) #17
  %10 = getelementptr inbounds nuw i8, ptr %4, i64 16
  %11 = load ptr, ptr %10, align 8, !tbaa !4
  %12 = call i32 @strcmp(ptr noundef nonnull dereferenceable(1) %11, ptr noundef nonnull dereferenceable(7) @.str.2) #18
  %13 = icmp eq i32 %12, 0
  br i1 %13, label %14, label %21

14:                                               ; preds = %8
  %15 = add nsw i32 %1, -1
  %16 = icmp eq i32 %15, 0
  br i1 %16, label %17, label %21

17:                                               ; preds = %14
  %18 = getelementptr inbounds nuw i8, ptr %4, i64 8
  %19 = load ptr, ptr %18, align 8, !tbaa !11
  %20 = call i32 (ptr, ptr, ...) @luaL_error(ptr noundef %0, ptr noundef nonnull @.str.3, ptr noundef %19, ptr noundef %2)
  br label %29

21:                                               ; preds = %14, %8
  %.012 = phi i32 [ %15, %14 ], [ %1, %8 ]
  %22 = getelementptr inbounds nuw i8, ptr %4, i64 8
  %23 = load ptr, ptr %22, align 8, !tbaa !11
  %24 = icmp eq ptr %23, null
  br i1 %24, label %25, label %26

25:                                               ; preds = %21
  store ptr @.str.4, ptr %22, align 8, !tbaa !11
  br label %26

26:                                               ; preds = %25, %21
  %27 = phi ptr [ @.str.4, %25 ], [ %23, %21 ]
  %28 = call i32 (ptr, ptr, ...) @luaL_error(ptr noundef %0, ptr noundef nonnull @.str.5, i32 noundef %.012, ptr noundef nonnull %27, ptr noundef %2)
  br label %29

29:                                               ; preds = %26, %17, %6
  %.0 = phi i32 [ %20, %17 ], [ %28, %26 ], [ %7, %6 ]
  call void @llvm.lifetime.end.p0(i64 120, ptr nonnull %4) #17
  ret i32 %.0
}